target datalayout = "e-m:e-p270:32:32-p271:32:32-p272:64:64-i64:64-i128:128-f80:128-n8:16:32:64-S128"
target triple = "x86_64-pc-linux-gnu"

%struct.job_record = type { i32, ptr, ptr, ptr, ptr, i16, i32, i32, i32, ptr, i32, ptr, ptr, i16, ptr, double, i64, ptr, ptr, ptr, ptr, ptr, ptr, i32, ptr, i32, i64, i64, i32, i32, ptr, i16, i64, i64, i8, i32, ptr, ptr, ptr, ptr, ptr, ptr, ptr, ptr, i32, ptr, ptr, i32, ptr, i32, ptr, i32, ptr, i32, ptr, ptr, ptr, ptr, ptr, ptr, i32, i16, i64, ptr, ptr, ptr, ptr, %struct.acct_policy_limit_set_t, i16, ptr, ptr, ptr, ptr, ptr, i32, ptr, ptr, ptr, ptr, ptr, i32, i32, ptr, ptr, ptr, i16, ptr, ptr, i8, ptr, ptr, i64, i64, i8, i32, i32, i8, i32, ptr, i32, i64, i32, ptr, ptr, ptr, i8, i16, i64, i32, ptr, ptr, ptr, ptr, ptr, i16, i32, ptr, ptr, ptr, ptr, i32, ptr, i32, i16, i64, ptr, i32, i32, ptr, i64, ptr, ptr, i64, i32, i32, i64, i32, i32, ptr, ptr, ptr, ptr, ptr, ptr, ptr, ptr, ptr, ptr, ptr, ptr, i32, ptr, i16, i16, i16, i16, ptr, i32, i32, i8, i64 }
%struct.acct_policy_limit_set_t = type { i16, i16, ptr }
%struct.job_state_args_t = type { i32, i32, i32, ptr, i8 }
%struct.job_array_struct = type { i32, ptr, ptr, i32, i32, i32, i32, i32, i32, i32 }
%struct.job_state_response_job_t = type { i32, i32, i32, ptr, i32, i32 }

; Function Attrs: nounwind uwtable
define internal ptr @_job_state_array_bitmap(ptr noundef %0) #0 {
  %2 = alloca ptr, align 8
  %3 = alloca ptr, align 8
  store ptr %0, ptr %3, align 8
  %4 = load ptr, ptr %3, align 8
  %5 = getelementptr inbounds nuw %struct.job_record, ptr %4, i32 0, i32 9
  %6 = load ptr, ptr %5, align 8
  %7 = icmp ne ptr %6, null
  br i1 %7, label %9, label %8

8:                                                ; preds = %1
  store ptr null, ptr %2, align 8
  br label %32

9:                                                ; preds = %1
  %10 = load ptr, ptr %3, align 8
  %11 = getelementptr inbounds nuw %struct.job_record, ptr %10, i32 0, i32 9
  %12 = load ptr, ptr %11, align 8
  %13 = getelementptr inbounds nuw %struct.job_array_struct, ptr %12, i32 0, i32 1
  %14 = load ptr, ptr %13, align 8
  %15 = icmp ne ptr %14, null
  br i1 %15, label %16, label %31

16:                                               ; preds = %9
  %17 = load ptr, ptr %3, align 8
  %18 = getelementptr inbounds nuw %struct.job_record, ptr %17, i32 0, i32 9
  %19 = load ptr, ptr %18, align 8
  %20 = getelementptr inbounds nuw %struct.job_array_struct, ptr %19, i32 0, i32 1
  %21 = load ptr, ptr %20, align 8
  %22 = call i64 @bit_ffs(ptr noundef %21)
  %23 = icmp ne i64 %22, -1
  br i1 %23, label %24, label %31

24:                                               ; preds = %16
  %25 = load ptr, ptr %3, align 8
  %26 = getelementptr inbounds nuw %struct.job_record, ptr %25, i32 0, i32 9
  %27 = load ptr, ptr %26, align 8
  %28 = getelementptr inbounds nuw %struct.job_array_struct, ptr %27, i32 0, i32 1
  %29 = load ptr, ptr %28, align 8
  %30 = call ptr @bit_copy(ptr noundef %29)
  store ptr %30, ptr %2, align 8
  br label %32

31:                                               ; preds = %16, %9
  store ptr null, ptr %2, align 8
  br label %32

32:                                               ; preds = %31, %24, %8
  %33 = load ptr, ptr %2, align 8
  ret ptr %33
}

; Function Attrs: nounwind uwtable
define internal ptr @_append_job_state(ptr noundef %0) #0 {
  %2 = alloca ptr, align 8
  %3 = alloca ptr, align 8
  %4 = alloca i32, align 4
  %5 = alloca ptr, align 8
  %6 = alloca i32, align 4
  store ptr %0, ptr %3, align 8
  call void @llvm.lifetime.start.p0(i64 4, ptr %4) #8
  call void @llvm.lifetime.start.p0(i64 8, ptr %5) #8
  %7 = load ptr, ptr %3, align 8
  %8 = getelementptr inbounds nuw %struct.job_state_args_t, ptr %7, i32 0, i32 2
  %9 = load i32, ptr %8, align 8
  %10 = add i32 %9, 1
  store i32 %10, ptr %8, align 8
  %11 = load ptr, ptr %3, align 8
  %12 = getelementptr inbounds nuw %struct.job_state_args_t, ptr %11, i32 0, i32 4
  %13 = load i8, ptr %12, align 8, !range !8, !noundef !9
  %14 = trunc i8 %13 to i1
  br i1 %14, label %15, label %16

15:                                               ; preds = %1
  store ptr null, ptr %2, align 8
  store i32 1, ptr %6, align 4
  br label %28

16:                                               ; preds = %1
  %17 = load ptr, ptr %3, align 8
  %18 = getelementptr inbounds nuw %struct.job_state_args_t, ptr %17, i32 0, i32 2
  %19 = load i32, ptr %18, align 8
  %20 = sub i32 %19, 1
  store i32 %20, ptr %4, align 4
  %21 = load ptr, ptr %3, align 8
  %22 = getelementptr inbounds nuw %struct.job_state_args_t, ptr %21, i32 0, i32 3
  %23 = load ptr, ptr %22, align 8
  %24 = load i32, ptr %4, align 4
  %25 = sext i32 %24 to i64
  %26 = getelementptr inbounds %struct.job_state_response_job_t, ptr %23, i64 %25
  store ptr %26, ptr %5, align 8
  %27 = load ptr, ptr %5, align 8
  store ptr %27, ptr %2, align 8
  store i32 1, ptr %6, align 4
  br label %28

28:                                               ; preds = %16, %15
  call void @llvm.lifetime.end.p0(i64 8, ptr %5) #8
  call void @llvm.lifetime.end.p0(i64 4, ptr %4) #8
  %29 = load ptr, ptr %2, align 8
  ret ptr %29
}

; Function Attrs: nounwind uwtable
define internal i32 @_foreach_job(ptr noundef %0, ptr noundef %1, ptr noundef %2) #0 {
  %4 = alloca i32, align 4
  %5 = alloca ptr, align 8
  %6 = alloca ptr, align 8
  %7 = alloca ptr, align 8
  %8 = alloca ptr, align 8
  %9 = alloca ptr, align 8
  %10 = alloca i32, align 4
  store ptr %0, ptr %5, align 8
  store ptr %1, ptr %6, align 8
  store ptr %2, ptr %7, align 8
  call void @llvm.lifetime.start.p0(i64 8, ptr %8) #8
  %11 = load ptr, ptr %7, align 8
  store ptr %11, ptr %8, align 8
  call void @llvm.lifetime.start.p0(i64 8, ptr %9) #8
  %12 = load ptr, ptr %8, align 8
  %13 = call ptr @_append_job_state(ptr noundef %12)
  store ptr %13, ptr %9, align 8
  %14 = load ptr, ptr %8, align 8
  %15 = getelementptr inbounds nuw %struct.job_state_args_t, ptr %14, i32 0, i32 4
  %16 = load i8, ptr %15, align 8, !range !8, !noundef !9
  %17 = trunc i8 %16 to i1
  br i1 %17, label %18, label %19

18:                                               ; preds = %3
  store i32 1, ptr %4, align 4
  store i32 1, ptr %10, align 4
  br label %53

19:                                               ; preds = %3
  %20 = load ptr, ptr %9, align 8
  %21 = icmp ne ptr %20, null
  br i1 %21, label %23, label %22

22:                                               ; preds = %19
  store i32 3, ptr %4, align 4
  store i32 1, ptr %10, align 4
  br label %53

23:                                               ; preds = %19
  %24 = load ptr, ptr %5, align 8
  %25 = getelementptr inbounds nuw %struct.job_record, ptr %24, i32 0, i32 53
  %26 = load i32, ptr %25, align 8
  %27 = load ptr, ptr %9, align 8
  %28 = getelementptr inbounds nuw %struct.job_state_response_job_t, ptr %27, i32 0, i32 0
  store i32 %26, ptr %28, align 8
  %29 = load ptr, ptr %5, align 8
  %30 = getelementptr inbounds nuw %struct.job_record, ptr %29, i32 0, i32 7
  %31 = load i32, ptr %30, align 8
  %32 = load ptr, ptr %9, align 8
  %33 = getelementptr inbounds nuw %struct.job_state_response_job_t, ptr %32, i32 0, i32 1
  store i32 %31, ptr %33, align 4
  %34 = load ptr, ptr %5, align 8
  %35 = getelementptr inbounds nuw %struct.job_record, ptr %34, i32 0, i32 8
  %36 = load i32, ptr %35, align 4
  %37 = load ptr, ptr %9, align 8
  %38 = getelementptr inbounds nuw %struct.job_state_response_job_t, ptr %37, i32 0, i32 2
  store i32 %36, ptr %38, align 8
  %39 = load ptr, ptr %5, align 8
  %40 = call ptr @_job_state_array_bitmap(ptr noundef %39)
  %41 = load ptr, ptr %9, align 8
  %42 = getelementptr inbounds nuw %struct.job_state_response_job_t, ptr %41, i32 0, i32 3
  store ptr %40, ptr %42, align 8
  %43 = load ptr, ptr %5, align 8
  %44 = getelementptr inbounds nuw %struct.job_record, ptr %43, i32 0, i32 49
  %45 = load i32, ptr %44, align 8
  %46 = load ptr, ptr %9, align 8
  %47 = getelementptr inbounds nuw %struct.job_state_response_job_t, ptr %46, i32 0, i32 4
  store i32 %45, ptr %47, align 8
  %48 = load ptr, ptr %5, align 8
  %49 = getelementptr inbounds nuw %struct.job_record, ptr %48, i32 0, i32 60
  %50 = load i32, ptr %49, align 8
  %51 = load ptr, ptr %9, align 8
  %52 = getelementptr inbounds nuw %struct.job_state_response_job_t, ptr %51, i32 0, i32 5
  store i32 %50, ptr %52, align 4
  store i32 1, ptr %4, align 4
  store i32 1, ptr %10, align 4
  br label %53

53:                                               ; preds = %23, %22, %18
  call void @llvm.lifetime.end.p0(i64 8, ptr %9) #8
  call void @llvm.lifetime.end.p0(i64 8, ptr %8) #8
  %54 = load i32, ptr %4, align 4
  ret i32 %54
}