; Function Attrs: nounwind uwtable
define internal range(i32 1, 4) i32 @_foreach_job(ptr noundef readonly captures(none) %0, ptr readnone captures(none) %1, ptr noundef captures(none) %2) #0 {
  %4 = getelementptr inbounds nuw i8, ptr %2, i64 8
  %5 = load i32, ptr %4, align 8
  %6 = add i32 %5, 1
  store i32 %6, ptr %4, align 8
  %7 = getelementptr inbounds nuw i8, ptr %2, i64 24
  %8 = load i8, ptr %7, align 8, !range !13, !noundef !14
  %9 = trunc nuw i8 %8 to i1
  br i1 %9, label %_append_job_state.exit.thread, label %10

10:                                               ; preds = %3
  %11 = getelementptr inbounds nuw i8, ptr %2, i64 16
  %12 = load ptr, ptr %11, align 8
  %13 = sext i32 %5 to i64
  %14 = getelementptr inbounds %struct.job_state_response_job_t, ptr %12, i64 %13
  %.not = icmp eq ptr %12, null
  br i1 %.not, label %_append_job_state.exit.thread, label %15

15:                                               ; preds = %10
  %16 = getelementptr inbounds nuw i8, ptr %0, i64 392
  %17 = load i32, ptr %16, align 8
  store i32 %17, ptr %14, align 8
  %18 = getelementptr inbounds nuw i8, ptr %0, i64 48
  %19 = load i32, ptr %18, align 8
  %20 = getelementptr inbounds nuw i8, ptr %14, i64 4
  store i32 %19, ptr %20, align 4
  %21 = getelementptr inbounds nuw i8, ptr %0, i64 52
  %22 = load i32, ptr %21, align 4
  %23 = getelementptr inbounds nuw i8, ptr %14, i64 8
  store i32 %22, ptr %23, align 8
  %24 = getelementptr inbounds nuw i8, ptr %0, i64 56
  %25 = load ptr, ptr %24, align 8
  %.not.i = icmp eq ptr %25, null
  br i1 %.not.i, label %_job_state_array_bitmap.exit, label %26

26:                                               ; preds = %15
  %27 = getelementptr inbounds nuw i8, ptr %25, i64 8
  %28 = load ptr, ptr %27, align 8
  %.not7.i = icmp eq ptr %28, null
  br i1 %.not7.i, label %_job_state_array_bitmap.exit, label %29

29:                                               ; preds = %26
  %30 = tail call i64 @bit_ffs(ptr noundef nonnull %28) #9
  %.not8.i = icmp eq i64 %30, -1
  br i1 %.not8.i, label %_job_state_array_bitmap.exit, label %31

31:                                               ; preds = %29
  %32 = load ptr, ptr %24, align 8
  %33 = getelementptr inbounds nuw i8, ptr %32, i64 8
  %34 = load ptr, ptr %33, align 8
  %35 = tail call ptr @bit_copy(ptr noundef %34) #9
  br label %_job_state_array_bitmap.exit

_job_state_array_bitmap.exit:                     ; preds = %15, %26, %29, %31
  %.0.i17 = phi ptr [ %35, %31 ], [ null, %15 ], [ null, %29 ], [ null, %26 ]
  %36 = getelementptr inbounds nuw i8, ptr %14, i64 16
  store ptr %.0.i17, ptr %36, align 8
  %37 = getelementptr inbounds nuw i8, ptr %0, i64 360
  %38 = load i32, ptr %37, align 8
  %39 = getelementptr inbounds nuw i8, ptr %14, i64 24
  store i32 %38, ptr %39, align 8
  %40 = getelementptr inbounds nuw i8, ptr %0, i64 448
  %41 = load i32, ptr %40, align 8
  %42 = getelementptr inbounds nuw i8, ptr %14, i64 28
  store i32 %41, ptr %42, align 4
  br label %_append_job_state.exit.thread

_append_job_state.exit.thread:                    ; preds = %3, %10, %_job_state_array_bitmap.exit
  %.0 = phi i32 [ 1, %_job_state_array_bitmap.exit ], [ 3, %10 ], [ 1, %3 ]
  ret i32 %.0
}